; Function Attrs: nounwind uwtable
define internal void @grdes(ptr noundef captures(none) %0) #0 {
  %2 = getelementptr inbounds nuw i8, ptr %0, i64 144
  %3 = load ptr, ptr %2, align 8, !tbaa !229
  %.not = icmp eq ptr %3, null
  br i1 %.not, label %5, label %4

4:                                                ; preds = %1
  tail call void @free(ptr noundef nonnull %3) #15
  store ptr null, ptr %2, align 8, !tbaa !229
  br label %5

5:                                                ; preds = %4, %1
  %6 = getelementptr inbounds nuw i8, ptr %0, i64 152
  %7 = load ptr, ptr %6, align 8, !tbaa !231
  %.not9 = icmp eq ptr %7, null
  br i1 %.not9, label %11, label %8

8:                                                ; preds = %5
  %9 = getelementptr inbounds nuw i8, ptr %0, i64 160
  %10 = load i64, ptr %9, align 8, !tbaa !232
  tail call void @PMIx_Proc_free(ptr noundef nonnull %7, i64 noundef %10) #15
  store ptr null, ptr %6, align 8, !tbaa !231
  br label %11

11:                                               ; preds = %8, %5
  ret void
}